target datalayout = "e-m:e-p270:32:32-p271:32:32-p272:64:64-i64:64-i128:128-f80:128-n8:16:32:64-S128"
target triple = "x86_64-pc-linux-gnu"

%struct.mbedtls_poly1305_context = type { [4 x i32], [4 x i32], [5 x i32], [16 x i8], i64 }

; Function Attrs: nounwind uwtable
define hidden i32 @mbedtls_poly1305_update(ptr noundef %0, ptr noundef %1, i64 noundef %2) #0 {
  %4 = alloca ptr, align 8
  %5 = alloca ptr, align 8
  %6 = alloca i64, align 8
  %7 = alloca i64, align 8
  %8 = alloca i64, align 8
  %9 = alloca i64, align 8
  %10 = alloca i64, align 8
  store ptr %0, ptr %4, align 8, !tbaa !3
  store ptr %1, ptr %5, align 8, !tbaa !8
  store i64 %2, ptr %6, align 8, !tbaa !16
  call void @llvm.lifetime.start.p0(i64 8, ptr %7) #8
  store i64 0, ptr %7, align 8, !tbaa !16
  call void @llvm.lifetime.start.p0(i64 8, ptr %8) #8
  %11 = load i64, ptr %6, align 8, !tbaa !16
  store i64 %11, ptr %8, align 8, !tbaa !16
  call void @llvm.lifetime.start.p0(i64 8, ptr %9) #8
  call void @llvm.lifetime.start.p0(i64 8, ptr %10) #8
  %12 = load i64, ptr %8, align 8, !tbaa !16
  %13 = icmp ugt i64 %12, 0
  br i1 %13, label %14, label %63

14:                                               ; preds = %3
  %15 = load ptr, ptr %4, align 8, !tbaa !3
  %16 = getelementptr inbounds nuw %struct.mbedtls_poly1305_context, ptr %15, i32 0, i32 4
  %17 = load i64, ptr %16, align 8, !tbaa !12
  %18 = icmp ugt i64 %17, 0
  br i1 %18, label %19, label %63

19:                                               ; preds = %14
  %20 = load ptr, ptr %4, align 8, !tbaa !3
  %21 = getelementptr inbounds nuw %struct.mbedtls_poly1305_context, ptr %20, i32 0, i32 4
  %22 = load i64, ptr %21, align 8, !tbaa !12
  %23 = sub i64 16, %22
  store i64 %23, ptr %9, align 8, !tbaa !16
  %24 = load i64, ptr %6, align 8, !tbaa !16
  %25 = load i64, ptr %9, align 8, !tbaa !16
  %26 = icmp ult i64 %24, %25
  br i1 %26, label %27, label %41

27:                                               ; preds = %19
  %28 = load ptr, ptr %4, align 8, !tbaa !3
  %29 = getelementptr inbounds nuw %struct.mbedtls_poly1305_context, ptr %28, i32 0, i32 3
  %30 = load ptr, ptr %4, align 8, !tbaa !3
  %31 = getelementptr inbounds nuw %struct.mbedtls_poly1305_context, ptr %30, i32 0, i32 4
  %32 = load i64, ptr %31, align 8, !tbaa !12
  %33 = getelementptr inbounds nuw [16 x i8], ptr %29, i64 0, i64 %32
  %34 = load ptr, ptr %5, align 8, !tbaa !8
  %35 = load i64, ptr %6, align 8, !tbaa !16
  call void @llvm.memcpy.p0.p0.i64(ptr align 1 %33, ptr align 1 %34, i64 %35, i1 false)
  %36 = load i64, ptr %6, align 8, !tbaa !16
  %37 = load ptr, ptr %4, align 8, !tbaa !3
  %38 = getelementptr inbounds nuw %struct.mbedtls_poly1305_context, ptr %37, i32 0, i32 4
  %39 = load i64, ptr %38, align 8, !tbaa !12
  %40 = add i64 %39, %36
  store i64 %40, ptr %38, align 8, !tbaa !12
  store i64 0, ptr %8, align 8, !tbaa !16
  br label %62

41:                                               ; preds = %19
  %42 = load ptr, ptr %4, align 8, !tbaa !3
  %43 = getelementptr inbounds nuw %struct.mbedtls_poly1305_context, ptr %42, i32 0, i32 3
  %44 = load ptr, ptr %4, align 8, !tbaa !3
  %45 = getelementptr inbounds nuw %struct.mbedtls_poly1305_context, ptr %44, i32 0, i32 4
  %46 = load i64, ptr %45, align 8, !tbaa !12
  %47 = getelementptr inbounds nuw [16 x i8], ptr %43, i64 0, i64 %46
  %48 = load ptr, ptr %5, align 8, !tbaa !8
  %49 = load i64, ptr %9, align 8, !tbaa !16
  call void @llvm.memcpy.p0.p0.i64(ptr align 1 %47, ptr align 1 %48, i64 %49, i1 false)
  %50 = load ptr, ptr %4, align 8, !tbaa !3
  %51 = getelementptr inbounds nuw %struct.mbedtls_poly1305_context, ptr %50, i32 0, i32 4
  store i64 0, ptr %51, align 8, !tbaa !12
  %52 = load ptr, ptr %4, align 8, !tbaa !3
  %53 = load ptr, ptr %4, align 8, !tbaa !3
  %54 = getelementptr inbounds nuw %struct.mbedtls_poly1305_context, ptr %53, i32 0, i32 3
  %55 = getelementptr inbounds [16 x i8], ptr %54, i64 0, i64 0
  call void @poly1305_process(ptr noundef %52, i64 noundef 1, ptr noundef %55, i32 noundef 1)
  %56 = load i64, ptr %9, align 8, !tbaa !16
  %57 = load i64, ptr %7, align 8, !tbaa !16
  %58 = add i64 %57, %56
  store i64 %58, ptr %7, align 8, !tbaa !16
  %59 = load i64, ptr %9, align 8, !tbaa !16
  %60 = load i64, ptr %8, align 8, !tbaa !16
  %61 = sub i64 %60, %59
  store i64 %61, ptr %8, align 8, !tbaa !16
  br label %62

62:                                               ; preds = %41, %27
  br label %63

63:                                               ; preds = %62, %14, %3
  %64 = load i64, ptr %8, align 8, !tbaa !16
  %65 = icmp uge i64 %64, 16
  br i1 %65, label %66, label %80

66:                                               ; preds = %63
  %67 = load i64, ptr %8, align 8, !tbaa !16
  %68 = udiv i64 %67, 16
  store i64 %68, ptr %10, align 8, !tbaa !16
  %69 = load ptr, ptr %4, align 8, !tbaa !3
  %70 = load i64, ptr %10, align 8, !tbaa !16
  %71 = load ptr, ptr %5, align 8, !tbaa !8
  %72 = load i64, ptr %7, align 8, !tbaa !16
  %73 = getelementptr inbounds nuw i8, ptr %71, i64 %72
  call void @poly1305_process(ptr noundef %69, i64 noundef %70, ptr noundef %73, i32 noundef 1)
  %74 = load i64, ptr %10, align 8, !tbaa !16
  %75 = mul i64 %74, 16
  %76 = load i64, ptr %7, align 8, !tbaa !16
  %77 = add i64 %76, %75
  store i64 %77, ptr %7, align 8, !tbaa !16
  %78 = load i64, ptr %8, align 8, !tbaa !16
  %79 = urem i64 %78, 16
  store i64 %79, ptr %8, align 8, !tbaa !16
  br label %80

80:                                               ; preds = %66, %63
  %81 = load i64, ptr %8, align 8, !tbaa !16
  %82 = icmp ugt i64 %81, 0
  br i1 %82, label %83, label %94

83:                                               ; preds = %80
  %84 = load i64, ptr %8, align 8, !tbaa !16
  %85 = load ptr, ptr %4, align 8, !tbaa !3
  %86 = getelementptr inbounds nuw %struct.mbedtls_poly1305_context, ptr %85, i32 0, i32 4
  store i64 %84, ptr %86, align 8, !tbaa !12
  %87 = load ptr, ptr %4, align 8, !tbaa !3
  %88 = getelementptr inbounds nuw %struct.mbedtls_poly1305_context, ptr %87, i32 0, i32 3
  %89 = getelementptr inbounds [16 x i8], ptr %88, i64 0, i64 0
  %90 = load ptr, ptr %5, align 8, !tbaa !8
  %91 = load i64, ptr %7, align 8, !tbaa !16
  %92 = getelementptr inbounds nuw i8, ptr %90, i64 %91
  %93 = load i64, ptr %8, align 8, !tbaa !16
  call void @llvm.memcpy.p0.p0.i64(ptr align 4 %89, ptr align 1 %92, i64 %93, i1 false)
  br label %94

94:                                               ; preds = %83, %80
  call void @llvm.lifetime.end.p0(i64 8, ptr %10) #8
  call void @llvm.lifetime.end.p0(i64 8, ptr %9) #8
  call void @llvm.lifetime.end.p0(i64 8, ptr %8) #8
  call void @llvm.lifetime.end.p0(i64 8, ptr %7) #8
  ret i32 0
}