; Function Attrs: nofree norecurse nosync nounwind memory(argmem: readwrite) uwtable
define hidden noundef i32 @mbedtls_poly1305_update(ptr noundef captures(none) %0, ptr noundef readonly captures(none) %1, i64 noundef %2) local_unnamed_addr #2 {
  %.not = icmp eq i64 %2, 0
  br i1 %.not, label %.thread48, label %4

4:                                                ; preds = %3
  %5 = getelementptr inbounds nuw i8, ptr %0, i64 72
  %6 = load i64, ptr %5, align 8, !tbaa !7
  %.not44 = icmp eq i64 %6, 0
  br i1 %.not44, label %17, label %7

7:                                                ; preds = %4
  %8 = sub i64 16, %6
  %9 = icmp ult i64 %2, %8
  %10 = getelementptr inbounds nuw i8, ptr %0, i64 52
  %11 = getelementptr inbounds nuw [16 x i8], ptr %10, i64 0, i64 %6
  br i1 %9, label %12, label %15

12:                                               ; preds = %7
  tail call void @llvm.memcpy.p0.p0.i64(ptr nonnull align 1 %11, ptr align 1 %1, i64 %2, i1 false)
  %13 = load i64, ptr %5, align 8, !tbaa !7
  %14 = add i64 %13, %2
  store i64 %14, ptr %5, align 8, !tbaa !7
  br label %.thread48

15:                                               ; preds = %7
  tail call void @llvm.memcpy.p0.p0.i64(ptr nonnull align 1 %11, ptr align 1 %1, i64 %8, i1 false)
  store i64 0, ptr %5, align 8, !tbaa !7
  tail call fastcc void @poly1305_process(ptr noundef nonnull %0, i64 noundef 1, ptr noundef nonnull %10, i32 noundef 1)
  %16 = sub nuw i64 %2, %8
  br label %17

17:                                               ; preds = %15, %4
  %.038 = phi i64 [ %16, %15 ], [ %2, %4 ]
  %.0 = phi i64 [ %8, %15 ], [ 0, %4 ]
  %18 = icmp ugt i64 %.038, 15
  br i1 %18, label %19, label %25

19:                                               ; preds = %17
  %20 = lshr i64 %.038, 4
  %21 = getelementptr inbounds nuw i8, ptr %1, i64 %.0
  tail call fastcc void @poly1305_process(ptr noundef nonnull %0, i64 noundef %20, ptr noundef %21, i32 noundef 1)
  %22 = and i64 %.038, -16
  %23 = add i64 %.0, %22
  %24 = and i64 %.038, 15
  br label %25

25:                                               ; preds = %19, %17
  %.139 = phi i64 [ %24, %19 ], [ %.038, %17 ]
  %.1 = phi i64 [ %23, %19 ], [ %.0, %17 ]
  %.not45 = icmp eq i64 %.139, 0
  br i1 %.not45, label %.thread48, label %26

26:                                               ; preds = %25
  store i64 %.139, ptr %5, align 8, !tbaa !7
  %27 = getelementptr inbounds nuw i8, ptr %0, i64 52
  %28 = getelementptr inbounds nuw i8, ptr %1, i64 %.1
  tail call void @llvm.memcpy.p0.p0.i64(ptr nonnull align 4 %27, ptr align 1 %28, i64 %.139, i1 false)
  br label %.thread48

.thread48:                                        ; preds = %12, %3, %26, %25
  ret i32 0
}